; Function Attrs: mustprogress nofree norecurse nosync nounwind willreturn memory(readwrite, inaccessiblemem: none) uwtable
define void @_ZN5Ipopt16IpoptApplication13IpoptCQObjectEv(ptr dead_on_unwind noalias writable writeonly sret(%"class.Ipopt::SmartPtr.6") align 8 captures(none) initializes((0, 8)) %0, ptr noundef nonnull readonly align 8 captures(none) dereferenceable(90) %1) unnamed_addr #11 align 2 {
  %3 = getelementptr inbounds nuw i8, ptr %1, i64 72
  %4 = load ptr, ptr %3, align 8, !tbaa !72
  %.not.i.i.i = icmp eq ptr %4, null
  br i1 %.not.i.i.i, label %_ZN5Ipopt8SmartPtrINS_25IpoptCalculatedQuantitiesEEC2ERKS2_.exit, label %5

5:                                                ; preds = %2
  %6 = getelementptr inbounds nuw i8, ptr %4, i64 8
  %7 = load i32, ptr %6, align 8, !tbaa !3
  %8 = add nsw i32 %7, 1
  store i32 %8, ptr %6, align 8, !tbaa !3
  br label %_ZN5Ipopt8SmartPtrINS_25IpoptCalculatedQuantitiesEEC2ERKS2_.exit

_ZN5Ipopt8SmartPtrINS_25IpoptCalculatedQuantitiesEEC2ERKS2_.exit: ; preds = %2, %5
  store ptr %4, ptr %0, align 8, !tbaa !72
  ret void
}